; Function Attrs: nounwind uwtable
define ptr @l_Lean_Parser_interpolatedStr(ptr noundef %0) local_unnamed_addr #0 {
  %2 = load ptr, ptr @l_Lean_Parser_interpolatedStrNoAntiquot___closed__3, align 8, !tbaa !10
  %3 = tail call ptr @l_Lean_Parser_adaptCacheableContext(ptr noundef %2, ptr noundef %0) #3
  %4 = getelementptr inbounds nuw i8, ptr %3, i64 16
  %5 = load ptr, ptr %4, align 8, !tbaa !10
  %6 = ptrtoint ptr %5 to i64
  %7 = and i64 %6, 1
  %.not = icmp eq i64 %7, 0
  br i1 %.not, label %8, label %lean_inc.exit

8:                                                ; preds = %1
  %.val.i = load i32, ptr %5, align 4, !tbaa !4
  %9 = icmp sgt i32 %.val.i, 0
  br i1 %9, label %10, label %12, !prof !9

10:                                               ; preds = %8
  %11 = add nuw i32 %.val.i, 1
  store i32 %11, ptr %5, align 4, !tbaa !4
  br label %lean_inc.exit

12:                                               ; preds = %8
  %.not.i14 = icmp eq i32 %.val.i, 0
  br i1 %.not.i14, label %lean_inc.exit, label %13

13:                                               ; preds = %12
  tail call void @lean_inc_ref_cold(ptr noundef nonnull %5) #3
  br label %lean_inc.exit

lean_inc.exit:                                    ; preds = %13, %12, %10, %1
  %14 = ptrtoint ptr %3 to i64
  %15 = and i64 %14, 1
  %.not15 = icmp eq i64 %15, 0
  br i1 %.not15, label %16, label %lean_dec.exit

16:                                               ; preds = %lean_inc.exit
  %17 = load i32, ptr %3, align 4, !tbaa !4
  %18 = icmp sgt i32 %17, 1
  br i1 %18, label %19, label %21, !prof !9

19:                                               ; preds = %16
  %20 = add nsw i32 %17, -1
  store i32 %20, ptr %3, align 4, !tbaa !4
  br label %lean_dec.exit

21:                                               ; preds = %16
  %.not.i = icmp eq i32 %17, 0
  br i1 %.not.i, label %lean_dec.exit, label %22

22:                                               ; preds = %21
  tail call void @lean_dec_ref_cold(ptr noundef nonnull %3) #3
  br label %lean_dec.exit

lean_dec.exit:                                    ; preds = %22, %21, %19, %lean_inc.exit
  tail call void @lean_inc_heartbeat() #3
  %23 = tail call noalias ptr @mi_malloc_small(i64 noundef 32) #3
  %24 = icmp eq ptr %23, null
  br i1 %24, label %25, label %lean_alloc_closure.exit

25:                                               ; preds = %lean_dec.exit
  tail call void @lean_internal_panic_out_of_memory() #4
  unreachable

lean_alloc_closure.exit:                          ; preds = %lean_dec.exit
  %26 = getelementptr inbounds nuw i8, ptr %23, i64 4
  store i32 1, ptr %23, align 4, !tbaa !4
  store i32 -184549344, ptr %26, align 4
  %27 = getelementptr inbounds nuw i8, ptr %23, i64 8
  store ptr @l_Lean_Parser_interpolatedStrFn, ptr %27, align 8, !tbaa !10
  %28 = getelementptr inbounds nuw i8, ptr %23, i64 16
  store i16 3, ptr %28, align 8, !tbaa !14
  %29 = getelementptr inbounds nuw i8, ptr %23, i64 18
  store i16 1, ptr %29, align 2, !tbaa !14
  %30 = getelementptr inbounds nuw i8, ptr %23, i64 24
  store ptr %5, ptr %30, align 8, !tbaa !10
  %31 = load ptr, ptr @l_Lean_Parser_interpolatedStrNoAntiquot___closed__2, align 8, !tbaa !10
  tail call void @lean_inc_heartbeat() #3
  %32 = tail call noalias ptr @mi_malloc_small(i64 noundef 24) #3
  %33 = icmp eq ptr %32, null
  br i1 %33, label %34, label %lean_alloc_ctor.exit

34:                                               ; preds = %lean_alloc_closure.exit
  tail call void @lean_internal_panic_out_of_memory() #4
  unreachable

lean_alloc_ctor.exit:                             ; preds = %lean_alloc_closure.exit
  %35 = getelementptr inbounds nuw i8, ptr %32, i64 4
  store i32 1, ptr %32, align 4, !tbaa !4
  store i32 131096, ptr %35, align 4
  %36 = getelementptr inbounds nuw i8, ptr %32, i64 8
  store ptr %31, ptr %36, align 8, !tbaa !10
  %37 = getelementptr inbounds nuw i8, ptr %32, i64 16
  store ptr %23, ptr %37, align 8, !tbaa !10
  %38 = load ptr, ptr @l_Lean_Parser_interpolatedStr___closed__1, align 8, !tbaa !10
  %39 = tail call ptr @l_Lean_Parser_withAntiquot(ptr noundef %38, ptr noundef nonnull %32) #3
  ret ptr %39
}